target datalayout = "e-m:e-p270:32:32-p271:32:32-p272:64:64-i64:64-i128:128-f80:128-n8:16:32:64-S128"
target triple = "x86_64-pc-linux-gnu"

%struct._ir_proto_t = type { i8, i8, i8, [5 x i8] }

@.str = private unnamed_addr constant [2 x i8] c"(\00", align 1
@.str.1 = private unnamed_addr constant [3 x i8] c"%s\00", align 1
@ir_type_cname = external global [14 x ptr], align 16
@.str.2 = private unnamed_addr constant [5 x i8] c", %s\00", align 1
@.str.3 = private unnamed_addr constant [6 x i8] c", ...\00", align 1
@.str.4 = private unnamed_addr constant [4 x i8] c"...\00", align 1
@.str.5 = private unnamed_addr constant [6 x i8] c"): %s\00", align 1
@.str.6 = private unnamed_addr constant [12 x i8] c" __fastcall\00", align 1
@.str.7 = private unnamed_addr constant [11 x i8] c" __builtin\00", align 1
@.str.8 = private unnamed_addr constant [12 x i8] c"(): int32_t\00", align 1

; Function Attrs: nounwind uwtable
define hidden void @ir_print_proto(ptr noundef %0, i32 noundef %1, ptr noundef %2) #0 {
  %4 = alloca ptr, align 8
  %5 = alloca i32, align 4
  %6 = alloca ptr, align 8
  %7 = alloca i32, align 4
  %8 = alloca ptr, align 8
  store ptr %0, ptr %4, align 8, !tbaa !4
  store i32 %1, ptr %5, align 4, !tbaa !9
  store ptr %2, ptr %6, align 8, !tbaa !11
  call void @llvm.lifetime.start.p0(i64 4, ptr %7) #6
  %9 = load i32, ptr %5, align 4, !tbaa !9
  %10 = icmp ne i32 %9, 0
  br i1 %10, label %11, label %106

11:                                               ; preds = %3
  call void @llvm.lifetime.start.p0(i64 8, ptr %8) #6
  %12 = load ptr, ptr %4, align 8, !tbaa !4
  %13 = load i32, ptr %5, align 4, !tbaa !9
  %14 = call ptr @ir_get_str(ptr noundef %12, i32 noundef %13)
  store ptr %14, ptr %8, align 8, !tbaa !13
  %15 = load ptr, ptr %6, align 8, !tbaa !11
  %16 = call i32 (ptr, ptr, ...) @fprintf(ptr noundef %15, ptr noundef @.str) #6
  %17 = load ptr, ptr %8, align 8, !tbaa !13
  %18 = getelementptr inbounds nuw %struct._ir_proto_t, ptr %17, i32 0, i32 2
  %19 = load i8, ptr %18, align 1, !tbaa !15
  %20 = zext i8 %19 to i32
  %21 = icmp sgt i32 %20, 0
  br i1 %21, label %22, label %65

22:                                               ; preds = %11
  %23 = load ptr, ptr %6, align 8, !tbaa !11
  %24 = load ptr, ptr %8, align 8, !tbaa !13
  %25 = getelementptr inbounds nuw %struct._ir_proto_t, ptr %24, i32 0, i32 3
  %26 = getelementptr inbounds [5 x i8], ptr %25, i64 0, i64 0
  %27 = load i8, ptr %26, align 1, !tbaa !17
  %28 = zext i8 %27 to i64
  %29 = getelementptr inbounds nuw [14 x ptr], ptr @ir_type_cname, i64 0, i64 %28
  %30 = load ptr, ptr %29, align 8, !tbaa !18
  %31 = call i32 (ptr, ptr, ...) @fprintf(ptr noundef %23, ptr noundef @.str.1, ptr noundef %30) #6
  store i32 1, ptr %7, align 4, !tbaa !9
  br label %32

32:                                               ; preds = %51, %22
  %33 = load i32, ptr %7, align 4, !tbaa !9
  %34 = load ptr, ptr %8, align 8, !tbaa !13
  %35 = getelementptr inbounds nuw %struct._ir_proto_t, ptr %34, i32 0, i32 2
  %36 = load i8, ptr %35, align 1, !tbaa !15
  %37 = zext i8 %36 to i32
  %38 = icmp slt i32 %33, %37
  br i1 %38, label %39, label %54

39:                                               ; preds = %32
  %40 = load ptr, ptr %6, align 8, !tbaa !11
  %41 = load ptr, ptr %8, align 8, !tbaa !13
  %42 = getelementptr inbounds nuw %struct._ir_proto_t, ptr %41, i32 0, i32 3
  %43 = load i32, ptr %7, align 4, !tbaa !9
  %44 = sext i32 %43 to i64
  %45 = getelementptr inbounds [5 x i8], ptr %42, i64 0, i64 %44
  %46 = load i8, ptr %45, align 1, !tbaa !17
  %47 = zext i8 %46 to i64
  %48 = getelementptr inbounds nuw [14 x ptr], ptr @ir_type_cname, i64 0, i64 %47
  %49 = load ptr, ptr %48, align 8, !tbaa !18
  %50 = call i32 (ptr, ptr, ...) @fprintf(ptr noundef %40, ptr noundef @.str.2, ptr noundef %49) #6
  br label %51

51:                                               ; preds = %39
  %52 = load i32, ptr %7, align 4, !tbaa !9
  %53 = add nsw i32 %52, 1
  store i32 %53, ptr %7, align 4, !tbaa !9
  br label %32

54:                                               ; preds = %32
  %55 = load ptr, ptr %8, align 8, !tbaa !13
  %56 = getelementptr inbounds nuw %struct._ir_proto_t, ptr %55, i32 0, i32 0
  %57 = load i8, ptr %56, align 1, !tbaa !20
  %58 = zext i8 %57 to i32
  %59 = and i32 %58, 4
  %60 = icmp ne i32 %59, 0
  br i1 %60, label %61, label %64

61:                                               ; preds = %54
  %62 = load ptr, ptr %6, align 8, !tbaa !11
  %63 = call i32 (ptr, ptr, ...) @fprintf(ptr noundef %62, ptr noundef @.str.3) #6
  br label %64

64:                                               ; preds = %61, %54
  br label %76

65:                                               ; preds = %11
  %66 = load ptr, ptr %8, align 8, !tbaa !13
  %67 = getelementptr inbounds nuw %struct._ir_proto_t, ptr %66, i32 0, i32 0
  %68 = load i8, ptr %67, align 1, !tbaa !20
  %69 = zext i8 %68 to i32
  %70 = and i32 %69, 4
  %71 = icmp ne i32 %70, 0
  br i1 %71, label %72, label %75

72:                                               ; preds = %65
  %73 = load ptr, ptr %6, align 8, !tbaa !11
  %74 = call i32 (ptr, ptr, ...) @fprintf(ptr noundef %73, ptr noundef @.str.4) #6
  br label %75

75:                                               ; preds = %72, %65
  br label %76

76:                                               ; preds = %75, %64
  %77 = load ptr, ptr %6, align 8, !tbaa !11
  %78 = load ptr, ptr %8, align 8, !tbaa !13
  %79 = getelementptr inbounds nuw %struct._ir_proto_t, ptr %78, i32 0, i32 1
  %80 = load i8, ptr %79, align 1, !tbaa !21
  %81 = zext i8 %80 to i64
  %82 = getelementptr inbounds nuw [14 x ptr], ptr @ir_type_cname, i64 0, i64 %81
  %83 = load ptr, ptr %82, align 8, !tbaa !18
  %84 = call i32 (ptr, ptr, ...) @fprintf(ptr noundef %77, ptr noundef @.str.5, ptr noundef %83) #6
  %85 = load ptr, ptr %8, align 8, !tbaa !13
  %86 = getelementptr inbounds nuw %struct._ir_proto_t, ptr %85, i32 0, i32 0
  %87 = load i8, ptr %86, align 1, !tbaa !20
  %88 = zext i8 %87 to i32
  %89 = and i32 %88, 2
  %90 = icmp ne i32 %89, 0
  br i1 %90, label %91, label %94

91:                                               ; preds = %76
  %92 = load ptr, ptr %6, align 8, !tbaa !11
  %93 = call i32 (ptr, ptr, ...) @fprintf(ptr noundef %92, ptr noundef @.str.6) #6
  br label %105

94:                                               ; preds = %76
  %95 = load ptr, ptr %8, align 8, !tbaa !13
  %96 = getelementptr inbounds nuw %struct._ir_proto_t, ptr %95, i32 0, i32 0
  %97 = load i8, ptr %96, align 1, !tbaa !20
  %98 = zext i8 %97 to i32
  %99 = and i32 %98, 8
  %100 = icmp ne i32 %99, 0
  br i1 %100, label %101, label %104

101:                                              ; preds = %94
  %102 = load ptr, ptr %6, align 8, !tbaa !11
  %103 = call i32 (ptr, ptr, ...) @fprintf(ptr noundef %102, ptr noundef @.str.7) #6
  br label %104

104:                                              ; preds = %101, %94
  br label %105

105:                                              ; preds = %104, %91
  call void @llvm.lifetime.end.p0(i64 8, ptr %8) #6
  br label %109

106:                                              ; preds = %3
  %107 = load ptr, ptr %6, align 8, !tbaa !11
  %108 = call i32 (ptr, ptr, ...) @fprintf(ptr noundef %107, ptr noundef @.str.8) #6
  br label %109

109:                                              ; preds = %106, %105
  call void @llvm.lifetime.end.p0(i64 4, ptr %7) #6
  ret void
}