; Function Attrs: nounwind uwtable
define hidden void @ir_print_proto(ptr noundef %0, i32 noundef %1, ptr noundef captures(none) %2) local_unnamed_addr #0 {
  %.not = icmp eq i32 %1, 0
  br i1 %.not, label %50, label %4

4:                                                ; preds = %3
  %5 = tail call ptr @ir_get_str(ptr noundef %0, i32 noundef %1) #5
  %fputc = tail call i32 @fputc(i32 40, ptr %2)
  %6 = getelementptr inbounds nuw i8, ptr %5, i64 2
  %7 = load i8, ptr %6, align 1, !tbaa !4
  %.not24 = icmp eq i8 %7, 0
  br i1 %.not24, label %29, label %8

8:                                                ; preds = %4
  %9 = getelementptr inbounds nuw i8, ptr %5, i64 3
  %10 = load i8, ptr %9, align 1, !tbaa !8
  %11 = zext i8 %10 to i64
  %12 = getelementptr inbounds nuw [14 x ptr], ptr @ir_type_cname, i64 0, i64 %11
  %13 = load ptr, ptr %12, align 8, !tbaa !9
  %fputs = tail call i32 @fputs(ptr %13, ptr %2)
  %14 = load i8, ptr %6, align 1, !tbaa !4
  %15 = icmp ugt i8 %14, 1
  br i1 %15, label %.lr.ph, label %._crit_edge

.lr.ph:                                           ; preds = %8, %.lr.ph
  %indvars.iv = phi i64 [ %indvars.iv.next, %.lr.ph ], [ 1, %8 ]
  %16 = getelementptr inbounds nuw [5 x i8], ptr %9, i64 0, i64 %indvars.iv
  %17 = load i8, ptr %16, align 1, !tbaa !8
  %18 = zext i8 %17 to i64
  %19 = getelementptr inbounds nuw [14 x ptr], ptr @ir_type_cname, i64 0, i64 %18
  %20 = load ptr, ptr %19, align 8, !tbaa !9
  %21 = tail call i32 (ptr, ptr, ...) @fprintf(ptr noundef %2, ptr noundef nonnull @.str.2, ptr noundef %20) #5
  %indvars.iv.next = add nuw nsw i64 %indvars.iv, 1
  %22 = load i8, ptr %6, align 1, !tbaa !4
  %23 = zext i8 %22 to i64
  %24 = icmp samesign ult i64 %indvars.iv.next, %23
  br i1 %24, label %.lr.ph, label %._crit_edge

._crit_edge:                                      ; preds = %.lr.ph, %8
  %25 = load i8, ptr %5, align 1, !tbaa !12
  %26 = and i8 %25, 4
  %.not26 = icmp eq i8 %26, 0
  br i1 %.not26, label %34, label %27

27:                                               ; preds = %._crit_edge
  %28 = tail call i64 @fwrite(ptr nonnull @.str.3, i64 5, i64 1, ptr %2)
  br label %34

29:                                               ; preds = %4
  %30 = load i8, ptr %5, align 1, !tbaa !12
  %31 = and i8 %30, 4
  %.not25 = icmp eq i8 %31, 0
  br i1 %.not25, label %34, label %32

32:                                               ; preds = %29
  %33 = tail call i64 @fwrite(ptr nonnull @.str.4, i64 3, i64 1, ptr %2)
  br label %34

34:                                               ; preds = %29, %32, %._crit_edge, %27
  %35 = getelementptr inbounds nuw i8, ptr %5, i64 1
  %36 = load i8, ptr %35, align 1, !tbaa !13
  %37 = zext i8 %36 to i64
  %38 = getelementptr inbounds nuw [14 x ptr], ptr @ir_type_cname, i64 0, i64 %37
  %39 = load ptr, ptr %38, align 8, !tbaa !9
  %40 = tail call i32 (ptr, ptr, ...) @fprintf(ptr noundef %2, ptr noundef nonnull @.str.5, ptr noundef %39) #5
  %41 = load i8, ptr %5, align 1, !tbaa !12
  %42 = zext i8 %41 to i32
  %43 = and i32 %42, 2
  %.not27 = icmp eq i32 %43, 0
  br i1 %.not27, label %46, label %44

44:                                               ; preds = %34
  %45 = tail call i64 @fwrite(ptr nonnull @.str.6, i64 11, i64 1, ptr %2)
  br label %52

46:                                               ; preds = %34
  %47 = and i32 %42, 8
  %.not28 = icmp eq i32 %47, 0
  br i1 %.not28, label %52, label %48

48:                                               ; preds = %46
  %49 = tail call i64 @fwrite(ptr nonnull @.str.7, i64 10, i64 1, ptr %2)
  br label %52

50:                                               ; preds = %3
  %51 = tail call i64 @fwrite(ptr nonnull @.str.8, i64 11, i64 1, ptr %2)
  br label %52

52:                                               ; preds = %44, %48, %46, %50
  ret void
}